target datalayout = "e-m:e-p270:32:32-p271:32:32-p272:64:64-i64:64-i128:128-f80:128-n8:16:32:64-S128"
target triple = "x86_64-pc-linux-gnu"

%struct._object = type { %union.anon, ptr }
%union.anon = type { i64 }
%struct.PyVarObject = type { %struct._object, i64 }
%struct._typeobject = type { %struct.PyVarObject, ptr, i64, i64, ptr, i64, ptr, ptr, ptr, ptr, ptr, ptr, ptr, ptr, ptr, ptr, ptr, ptr, ptr, i64, ptr, ptr, ptr, ptr, i64, ptr, ptr, ptr, ptr, ptr, ptr, ptr, ptr, ptr, i64, ptr, ptr, ptr, ptr, ptr, ptr, ptr, ptr, ptr, ptr, ptr, i32, ptr, ptr, i8, i16 }

@.str.39 = private unnamed_addr constant [18 x i8] c"_unregister_error\00", align 1
@.str.42 = private unnamed_addr constant [9 x i8] c"argument\00", align 1
@.str.43 = private unnamed_addr constant [4 x i8] c"str\00", align 1
@PyExc_ValueError = external global ptr, align 8
@.str.44 = private unnamed_addr constant [24 x i8] c"embedded null character\00", align 1

; Function Attrs: nounwind uwtable
define internal i32 @_codecs__unregister_error_impl(ptr noundef %0, ptr noundef %1) #0 {
  %3 = alloca ptr, align 8
  %4 = alloca ptr, align 8
  store ptr %0, ptr %3, align 8, !tbaa !4
  store ptr %1, ptr %4, align 8, !tbaa !9
  %5 = load ptr, ptr %4, align 8, !tbaa !9
  %6 = call i32 @_PyCodec_UnregisterError(ptr noundef %5)
  ret i32 %6
}

; Function Attrs: inlinehint nounwind uwtable
define internal i32 @PyType_HasFeature(ptr noundef %0, i64 noundef %1) #3 {
  %3 = alloca ptr, align 8
  %4 = alloca i64, align 8
  %5 = alloca i64, align 8
  store ptr %0, ptr %3, align 8, !tbaa !20
  store i64 %1, ptr %4, align 8, !tbaa !11
  call void @llvm.lifetime.start.p0(i64 8, ptr %5) #6
  %6 = load ptr, ptr %3, align 8, !tbaa !20
  %7 = getelementptr inbounds nuw %struct._typeobject, ptr %6, i32 0, i32 19
  %8 = load i64, ptr %7, align 8, !tbaa !22
  store i64 %8, ptr %5, align 8, !tbaa !11
  %9 = load i64, ptr %5, align 8, !tbaa !11
  %10 = load i64, ptr %4, align 8, !tbaa !11
  %11 = and i64 %9, %10
  %12 = icmp ne i64 %11, 0
  %13 = zext i1 %12 to i32
  call void @llvm.lifetime.end.p0(i64 8, ptr %5) #6
  ret i32 %13
}

; Function Attrs: inlinehint nounwind uwtable
define internal ptr @_Py_TYPE(ptr noundef %0) #3 {
  %2 = alloca ptr, align 8
  store ptr %0, ptr %2, align 8, !tbaa !4
  %3 = load ptr, ptr %2, align 8, !tbaa !4
  %4 = getelementptr inbounds nuw %struct._object, ptr %3, i32 0, i32 1
  %5 = load ptr, ptr %4, align 8, !tbaa !30
  ret ptr %5
}

; Function Attrs: nounwind uwtable
define internal ptr @_codecs__unregister_error(ptr noundef %0, ptr noundef %1) #0 {
  %3 = alloca ptr, align 8
  %4 = alloca ptr, align 8
  %5 = alloca ptr, align 8
  %6 = alloca ptr, align 8
  %7 = alloca i32, align 4
  %8 = alloca i64, align 8
  store ptr %0, ptr %3, align 8, !tbaa !4
  store ptr %1, ptr %4, align 8, !tbaa !4
  call void @llvm.lifetime.start.p0(i64 8, ptr %5) #6
  store ptr null, ptr %5, align 8, !tbaa !4
  call void @llvm.lifetime.start.p0(i64 8, ptr %6) #6
  call void @llvm.lifetime.start.p0(i64 4, ptr %7) #6
  %9 = load ptr, ptr %4, align 8, !tbaa !4
  %10 = call ptr @_Py_TYPE(ptr noundef %9)
  %11 = call i32 @PyType_HasFeature(ptr noundef %10, i64 noundef 268435456)
  %12 = icmp ne i32 %11, 0
  br i1 %12, label %15, label %13

13:                                               ; preds = %2
  %14 = load ptr, ptr %4, align 8, !tbaa !4
  call void @_PyArg_BadArgument(ptr noundef @.str.39, ptr noundef @.str.42, ptr noundef @.str.43, ptr noundef %14)
  br label %42

15:                                               ; preds = %2
  %16 = load ptr, ptr %4, align 8, !tbaa !4
  %17 = call ptr @PyUnicode_AsUTF8AndSize(ptr noundef %16, ptr noundef %8)
  store ptr %17, ptr %6, align 8, !tbaa !9
  %18 = load ptr, ptr %6, align 8, !tbaa !9
  %19 = icmp eq ptr %18, null
  br i1 %19, label %20, label %21

20:                                               ; preds = %15
  br label %42

21:                                               ; preds = %15
  %22 = load ptr, ptr %6, align 8, !tbaa !9
  %23 = call i64 @strlen(ptr noundef %22) #7
  %24 = load i64, ptr %8, align 8, !tbaa !11
  %25 = icmp ne i64 %23, %24
  br i1 %25, label %26, label %28

26:                                               ; preds = %21
  %27 = load ptr, ptr @PyExc_ValueError, align 8, !tbaa !4
  call void @PyErr_SetString(ptr noundef %27, ptr noundef @.str.44)
  br label %42

28:                                               ; preds = %21
  %29 = load ptr, ptr %3, align 8, !tbaa !4
  %30 = load ptr, ptr %6, align 8, !tbaa !9
  %31 = call i32 @_codecs__unregister_error_impl(ptr noundef %29, ptr noundef %30)
  store i32 %31, ptr %7, align 4, !tbaa !19
  %32 = load i32, ptr %7, align 4, !tbaa !19
  %33 = icmp eq i32 %32, -1
  br i1 %33, label %34, label %38

34:                                               ; preds = %28
  %35 = call ptr @PyErr_Occurred()
  %36 = icmp ne ptr %35, null
  br i1 %36, label %37, label %38

37:                                               ; preds = %34
  br label %42

38:                                               ; preds = %34, %28
  %39 = load i32, ptr %7, align 4, !tbaa !19
  %40 = sext i32 %39 to i64
  %41 = call ptr @PyBool_FromLong(i64 noundef %40)
  store ptr %41, ptr %5, align 8, !tbaa !4
  br label %42

42:                                               ; preds = %38, %37, %26, %20, %13
  %43 = load ptr, ptr %5, align 8, !tbaa !4
  call void @llvm.lifetime.end.p0(i64 4, ptr %7) #6
  call void @llvm.lifetime.end.p0(i64 8, ptr %6) #6
  call void @llvm.lifetime.end.p0(i64 8, ptr %5) #6
  ret ptr %43
}