; Function Attrs: nounwind uwtable
define internal ptr @_codecs__unregister_error(ptr readnone captures(none) %0, ptr noundef %1) #0 {
  %3 = alloca i64, align 8
  %4 = getelementptr i8, ptr %1, i64 8
  %.val = load ptr, ptr %4, align 8, !tbaa !4
  %5 = getelementptr i8, ptr %.val, i64 168
  %.val12 = load i64, ptr %5, align 8, !tbaa !10
  %6 = and i64 %.val12, 268435456
  %.not = icmp eq i64 %6, 0
  br i1 %.not, label %7, label %8

7:                                                ; preds = %2
  tail call void @_PyArg_BadArgument(ptr noundef nonnull @.str.39, ptr noundef nonnull @.str.42, ptr noundef nonnull @.str.43, ptr noundef nonnull %1) #5
  br label %24

8:                                                ; preds = %2
  %9 = call ptr @PyUnicode_AsUTF8AndSize(ptr noundef nonnull %1, ptr noundef nonnull %3) #5
  %10 = icmp eq ptr %9, null
  br i1 %10, label %24, label %11

11:                                               ; preds = %8
  %12 = call i64 @strlen(ptr noundef nonnull dereferenceable(1) %9) #6
  %13 = load i64, ptr %3, align 8, !tbaa !21
  %.not10 = icmp eq i64 %12, %13
  br i1 %.not10, label %16, label %14

14:                                               ; preds = %11
  %15 = load ptr, ptr @PyExc_ValueError, align 8, !tbaa !22
  call void @PyErr_SetString(ptr noundef %15, ptr noundef nonnull @.str.44) #5
  br label %24

16:                                               ; preds = %11
  %17 = call i32 @_PyCodec_UnregisterError(ptr noundef nonnull %9) #5
  %18 = icmp eq i32 %17, -1
  br i1 %18, label %19, label %21

19:                                               ; preds = %16
  %20 = call ptr @PyErr_Occurred() #5
  %.not11 = icmp eq ptr %20, null
  br i1 %.not11, label %21, label %24

21:                                               ; preds = %19, %16
  %22 = sext i32 %17 to i64
  %23 = call ptr @PyBool_FromLong(i64 noundef %22) #5
  br label %24

24:                                               ; preds = %19, %8, %21, %14, %7
  %.0 = phi ptr [ null, %8 ], [ null, %14 ], [ null, %19 ], [ %23, %21 ], [ null, %7 ]
  ret ptr %.0
}